target datalayout = "e-m:e-p270:32:32-p271:32:32-p272:64:64-i64:64-i128:128-f80:128-n8:16:32:64-S128"
target triple = "x86_64-pc-linux-gnu"

%struct.GetByteContext = type { ptr, ptr, ptr }

; Function Attrs: alwaysinline nounwind uwtable
define internal i32 @bytestream_get_be24(ptr noundef %0) #3 {
  %2 = alloca ptr, align 8
  store ptr %0, ptr %2, align 8, !tbaa !73
  %3 = load ptr, ptr %2, align 8, !tbaa !73
  %4 = load ptr, ptr %3, align 8, !tbaa !45
  %5 = getelementptr inbounds i8, ptr %4, i64 3
  store ptr %5, ptr %3, align 8, !tbaa !45
  %6 = load ptr, ptr %2, align 8, !tbaa !73
  %7 = load ptr, ptr %6, align 8, !tbaa !45
  %8 = getelementptr inbounds i8, ptr %7, i64 -3
  %9 = getelementptr inbounds i8, ptr %8, i64 0
  %10 = load i8, ptr %9, align 1, !tbaa !47
  %11 = zext i8 %10 to i32
  %12 = shl i32 %11, 16
  %13 = load ptr, ptr %2, align 8, !tbaa !73
  %14 = load ptr, ptr %13, align 8, !tbaa !45
  %15 = getelementptr inbounds i8, ptr %14, i64 -3
  %16 = getelementptr inbounds i8, ptr %15, i64 1
  %17 = load i8, ptr %16, align 1, !tbaa !47
  %18 = zext i8 %17 to i32
  %19 = shl i32 %18, 8
  %20 = or i32 %12, %19
  %21 = load ptr, ptr %2, align 8, !tbaa !73
  %22 = load ptr, ptr %21, align 8, !tbaa !45
  %23 = getelementptr inbounds i8, ptr %22, i64 -3
  %24 = getelementptr inbounds i8, ptr %23, i64 2
  %25 = load i8, ptr %24, align 1, !tbaa !47
  %26 = zext i8 %25 to i32
  %27 = or i32 %20, %26
  ret i32 %27
}

; Function Attrs: alwaysinline nounwind uwtable
define internal i32 @bytestream2_get_be24u(ptr noundef %0) #3 {
  %2 = alloca ptr, align 8
  store ptr %0, ptr %2, align 8, !tbaa !58
  %3 = load ptr, ptr %2, align 8, !tbaa !58
  %4 = getelementptr inbounds nuw %struct.GetByteContext, ptr %3, i32 0, i32 0
  %5 = call i32 @bytestream_get_be24(ptr noundef %4)
  ret i32 %5
}

; Function Attrs: alwaysinline nounwind uwtable
define internal i32 @bytestream2_get_bytes_left(ptr noundef %0) #3 {
  %2 = alloca ptr, align 8
  store ptr %0, ptr %2, align 8, !tbaa !58
  %3 = load ptr, ptr %2, align 8, !tbaa !58
  %4 = getelementptr inbounds nuw %struct.GetByteContext, ptr %3, i32 0, i32 1
  %5 = load ptr, ptr %4, align 8, !tbaa !63
  %6 = load ptr, ptr %2, align 8, !tbaa !58
  %7 = getelementptr inbounds nuw %struct.GetByteContext, ptr %6, i32 0, i32 0
  %8 = load ptr, ptr %7, align 8, !tbaa !60
  %9 = ptrtoint ptr %5 to i64
  %10 = ptrtoint ptr %8 to i64
  %11 = sub i64 %9, %10
  %12 = trunc i64 %11 to i32
  ret i32 %12
}

; Function Attrs: nounwind uwtable
define internal void @pcx_palette(ptr noundef %0, ptr noundef %1, i32 noundef %2) #0 {
  %4 = alloca ptr, align 8
  %5 = alloca ptr, align 8
  %6 = alloca i32, align 4
  %7 = alloca i32, align 4
  store ptr %0, ptr %4, align 8, !tbaa !58
  store ptr %1, ptr %5, align 8, !tbaa !11
  store i32 %2, ptr %6, align 4, !tbaa !24
  call void @llvm.lifetime.start.p0(i64 4, ptr %7) #9
  %8 = load i32, ptr %6, align 4, !tbaa !24
  %9 = load ptr, ptr %4, align 8, !tbaa !58
  %10 = call i32 @bytestream2_get_bytes_left(ptr noundef %9)
  %11 = sdiv i32 %10, 3
  %12 = icmp sgt i32 %8, %11
  br i1 %12, label %13, label %17

13:                                               ; preds = %3
  %14 = load ptr, ptr %4, align 8, !tbaa !58
  %15 = call i32 @bytestream2_get_bytes_left(ptr noundef %14)
  %16 = sdiv i32 %15, 3
  br label %19

17:                                               ; preds = %3
  %18 = load i32, ptr %6, align 4, !tbaa !24
  br label %19

19:                                               ; preds = %17, %13
  %20 = phi i32 [ %16, %13 ], [ %18, %17 ]
  store i32 %20, ptr %6, align 4, !tbaa !24
  store i32 0, ptr %7, align 4, !tbaa !24
  br label %21

21:                                               ; preds = %31, %19
  %22 = load i32, ptr %7, align 4, !tbaa !24
  %23 = load i32, ptr %6, align 4, !tbaa !24
  %24 = icmp slt i32 %22, %23
  br i1 %24, label %25, label %34

25:                                               ; preds = %21
  %26 = load ptr, ptr %4, align 8, !tbaa !58
  %27 = call i32 @bytestream2_get_be24u(ptr noundef %26)
  %28 = or i32 -16777216, %27
  %29 = load ptr, ptr %5, align 8, !tbaa !11
  %30 = getelementptr inbounds nuw i32, ptr %29, i32 1
  store ptr %30, ptr %5, align 8, !tbaa !11
  store i32 %28, ptr %29, align 4, !tbaa !24
  br label %31

31:                                               ; preds = %25
  %32 = load i32, ptr %7, align 4, !tbaa !24
  %33 = add nsw i32 %32, 1
  store i32 %33, ptr %7, align 4, !tbaa !24
  br label %21, !llvm.loop !72

34:                                               ; preds = %21
  %35 = load i32, ptr %6, align 4, !tbaa !24
  %36 = icmp slt i32 %35, 256
  br i1 %36, label %37, label %43

37:                                               ; preds = %34
  %38 = load ptr, ptr %5, align 8, !tbaa !11
  %39 = load i32, ptr %6, align 4, !tbaa !24
  %40 = sub nsw i32 256, %39
  %41 = sext i32 %40 to i64
  %42 = mul i64 %41, 4
  call void @llvm.memset.p0.i64(ptr align 4 %38, i8 0, i64 %42, i1 false)
  br label %43

43:                                               ; preds = %37, %34
  call void @llvm.lifetime.end.p0(i64 4, ptr %7) #9
  ret void
}