; Function Attrs: nofree norecurse nosync nounwind memory(read, argmem: readwrite, inaccessiblemem: none) uwtable
define internal fastcc void @pcx_palette(ptr noundef nonnull captures(none) %0, ptr noundef writeonly captures(none) %1, i32 noundef range(i32 16, 257) %2) unnamed_addr #5 {
  %4 = getelementptr inbounds nuw i8, ptr %0, i64 8
  %5 = load ptr, ptr %4, align 8, !tbaa !18
  %6 = load ptr, ptr %0, align 8, !tbaa !37
  %7 = ptrtoint ptr %5 to i64
  %8 = ptrtoint ptr %6 to i64
  %9 = sub i64 %7, %8
  %10 = trunc i64 %9 to i32
  %11 = sdiv i32 %10, 3
  %spec.select = tail call i32 @llvm.smin.i32(i32 %2, i32 %11)
  %12 = icmp sgt i32 %10, 2
  br i1 %12, label %.lr.ph, label %._crit_edge

.lr.ph:                                           ; preds = %3
  %smax = tail call i32 @llvm.smax.i32(i32 %spec.select, i32 1)
  br label %13

13:                                               ; preds = %.lr.ph, %13
  %14 = phi ptr [ %6, %.lr.ph ], [ %15, %13 ]
  %.015 = phi i32 [ 0, %.lr.ph ], [ %30, %13 ]
  %.01114 = phi ptr [ %1, %.lr.ph ], [ %29, %13 ]
  %15 = getelementptr inbounds nuw i8, ptr %14, i64 3
  store ptr %15, ptr %0, align 8, !tbaa !19
  %16 = load i8, ptr %14, align 1, !tbaa !20
  %17 = zext i8 %16 to i32
  %18 = shl nuw nsw i32 %17, 16
  %19 = getelementptr inbounds nuw i8, ptr %14, i64 1
  %20 = load i8, ptr %19, align 1, !tbaa !20
  %21 = zext i8 %20 to i32
  %22 = shl nuw nsw i32 %21, 8
  %23 = getelementptr inbounds nuw i8, ptr %14, i64 2
  %24 = load i8, ptr %23, align 1, !tbaa !20
  %25 = zext i8 %24 to i32
  %26 = or disjoint i32 %18, %22
  %27 = or disjoint i32 %26, %25
  %28 = or disjoint i32 %27, -16777216
  %29 = getelementptr inbounds nuw i8, ptr %.01114, i64 4
  store i32 %28, ptr %.01114, align 4, !tbaa !43
  %30 = add nuw nsw i32 %.015, 1
  %exitcond.not = icmp eq i32 %30, %smax
  br i1 %exitcond.not, label %._crit_edge, label %13, !llvm.loop !56

._crit_edge:                                      ; preds = %13, %3
  %.011.lcssa = phi ptr [ %1, %3 ], [ %29, %13 ]
  %31 = icmp slt i32 %spec.select, 256
  br i1 %31, label %32, label %36

32:                                               ; preds = %._crit_edge
  %33 = sub nsw i32 256, %spec.select
  %34 = zext nneg i32 %33 to i64
  %35 = shl nuw nsw i64 %34, 2
  tail call void @llvm.memset.p0.i64(ptr align 4 %.011.lcssa, i8 0, i64 %35, i1 false)
  br label %36

36:                                               ; preds = %32, %._crit_edge
  ret void
}